; Function Attrs: mustprogress uwtable
define void @_ZN6duckdb14MetadataWriter5FlushEv(ptr noundef nonnull align 8 dereferenceable(80) %0) local_unnamed_addr #2 align 2 {
  %2 = getelementptr inbounds nuw i8, ptr %0, i64 72
  %3 = load i64, ptr %2, align 8, !tbaa !214
  %4 = getelementptr inbounds nuw i8, ptr %0, i64 64
  %5 = load i64, ptr %4, align 8, !tbaa !217
  %6 = icmp ult i64 %3, %5
  br i1 %6, label %7, label %29

7:                                                ; preds = %1
  %8 = getelementptr inbounds nuw i8, ptr %0, i64 40
  tail call void @_ZNK6duckdb12optional_ptrINS_10FileBufferELb1EE10CheckValidEv(ptr noundef nonnull align 8 dereferenceable(8) %8)
  %9 = load ptr, ptr %8, align 8, !tbaa !104
  %10 = getelementptr inbounds nuw i8, ptr %9, i64 16
  %11 = load ptr, ptr %10, align 8, !tbaa !106
  %12 = getelementptr inbounds nuw i8, ptr %0, i64 48
  %13 = load i64, ptr %12, align 8
  %14 = lshr i64 %13, 56
  %15 = getelementptr inbounds nuw i8, ptr %0, i64 8
  %16 = load ptr, ptr %15, align 8, !tbaa !218
  %17 = load ptr, ptr %16, align 8, !tbaa !43
  %18 = getelementptr inbounds nuw i8, ptr %17, i64 120
  %19 = tail call noundef i64 @_ZNK6duckdb12optional_idx8GetIndexEv(ptr noundef nonnull align 8 dereferenceable(8) %18)
  %20 = add i64 %19, -8
  %21 = lshr i64 %20, 6
  %22 = and i64 %21, 288230376151711736
  %23 = mul i64 %22, %14
  %24 = getelementptr inbounds nuw i8, ptr %11, i64 %23
  %25 = load i64, ptr %2, align 8, !tbaa !214
  %26 = getelementptr inbounds nuw i8, ptr %24, i64 %25
  %27 = load i64, ptr %4, align 8, !tbaa !217
  %28 = sub i64 %27, %25
  tail call void @llvm.memset.p0.i64(ptr align 1 %26, i8 0, i64 %28, i1 false)
  br label %29

29:                                               ; preds = %7, %1
  %30 = getelementptr inbounds nuw i8, ptr %0, i64 24
  tail call void @_ZN6duckdb12BufferHandle7DestroyEv(ptr noundef nonnull align 8 dereferenceable(24) %30)
  ret void
}